; Function Attrs: mustprogress uwtable
define hidden void @_ZN19OpenColorIO_v2_5dev15ClearPathCachesEv() local_unnamed_addr #4 personality ptr @__gxx_personality_v0 {
  %1 = tail call noundef i32 @pthread_mutex_lock(ptr noundef nonnull align 8 dereferenceable(40) @_ZN19OpenColorIO_v2_5dev12_GLOBAL__N_125g_fastFileHashCache_mutexE) #24
  %.not.i.i = icmp eq i32 %1, 0
  br i1 %.not.i.i, label %_ZNSt10lock_guardISt5mutexEC2ERS0_.exit, label %2

2:                                                ; preds = %0
  tail call void @_ZSt20__throw_system_errori(i32 noundef %1) #25
  unreachable

_ZNSt10lock_guardISt5mutexEC2ERS0_.exit:          ; preds = %0
  %_ZN19OpenColorIO_v2_5dev12_GLOBAL__N_119g_fastFileHashCacheB5cxx11E.val.i.i = load ptr, ptr getelementptr inbounds nuw (i8, ptr @_ZN19OpenColorIO_v2_5dev12_GLOBAL__N_119g_fastFileHashCacheB5cxx11E, i64 16), align 8, !tbaa !8
  invoke fastcc void @_ZNSt8_Rb_treeINSt7__cxx1112basic_stringIcSt11char_traitsIcESaIcEEESt4pairIKS5_St10shared_ptrIN19OpenColorIO_v2_5dev12_GLOBAL__N_114FileHashResultEEESt10_Select1stISD_ESt4lessIS5_ESaISD_EE8_M_eraseEPSt13_Rb_tree_nodeISD_E(ptr noundef %_ZN19OpenColorIO_v2_5dev12_GLOBAL__N_119g_fastFileHashCacheB5cxx11E.val.i.i)
          to label %_ZNSt3mapINSt7__cxx1112basic_stringIcSt11char_traitsIcESaIcEEESt10shared_ptrIN19OpenColorIO_v2_5dev12_GLOBAL__N_114FileHashResultEESt4lessIS5_ESaISt4pairIKS5_SA_EEE5clearEv.exit unwind label %3

3:                                                ; preds = %_ZNSt10lock_guardISt5mutexEC2ERS0_.exit
  %4 = landingpad { ptr, i32 }
          catch ptr null
  %5 = extractvalue { ptr, i32 } %4, 0
  tail call void @__clang_call_terminate(ptr %5) #23
  unreachable

_ZNSt3mapINSt7__cxx1112basic_stringIcSt11char_traitsIcESaIcEEESt10shared_ptrIN19OpenColorIO_v2_5dev12_GLOBAL__N_114FileHashResultEESt4lessIS5_ESaISt4pairIKS5_SA_EEE5clearEv.exit: ; preds = %_ZNSt10lock_guardISt5mutexEC2ERS0_.exit
  store ptr null, ptr getelementptr inbounds nuw (i8, ptr @_ZN19OpenColorIO_v2_5dev12_GLOBAL__N_119g_fastFileHashCacheB5cxx11E, i64 16), align 8, !tbaa !8
  store ptr getelementptr inbounds nuw (i8, ptr @_ZN19OpenColorIO_v2_5dev12_GLOBAL__N_119g_fastFileHashCacheB5cxx11E, i64 8), ptr getelementptr inbounds nuw (i8, ptr @_ZN19OpenColorIO_v2_5dev12_GLOBAL__N_119g_fastFileHashCacheB5cxx11E, i64 24), align 8, !tbaa !48
  store ptr getelementptr inbounds nuw (i8, ptr @_ZN19OpenColorIO_v2_5dev12_GLOBAL__N_119g_fastFileHashCacheB5cxx11E, i64 8), ptr getelementptr inbounds nuw (i8, ptr @_ZN19OpenColorIO_v2_5dev12_GLOBAL__N_119g_fastFileHashCacheB5cxx11E, i64 32), align 8, !tbaa !63
  store i64 0, ptr getelementptr inbounds nuw (i8, ptr @_ZN19OpenColorIO_v2_5dev12_GLOBAL__N_119g_fastFileHashCacheB5cxx11E, i64 40), align 8, !tbaa !45
  %6 = tail call noundef i32 @pthread_mutex_unlock(ptr noundef nonnull align 8 dereferenceable(40) @_ZN19OpenColorIO_v2_5dev12_GLOBAL__N_125g_fastFileHashCache_mutexE) #24
  ret void
}